(dp0
S'Omega goenitz'
p1
(isaltyRecorder
player
p2
(dp3
S'playerName'
p4
S'Soushihan k.s.k 12p color'
p5
sS'wins'
p6
I0
sS'games'
p7
I1
sbsS'Saber EX'
p8
(isaltyRecorder
player
p9
(dp10
g4
S'Dana dee'
p11
sg6
I0
sg7
I1
sbsS'Yuri di aaaaaa ex'
p12
(isaltyRecorder
player
p13
(dp14
g4
S'Duck king EX2'
p15
sg6
I0
sg7
I1
sbs.